; ModuleID = '27/2173.c'
source_filename = "27/2173.c"
target datalayout = "e-m:e-p270:32:32-p271:32:32-p272:64:64-i64:64-f80:128-n8:16:32:64-S128"
target triple = "x86_64-pc-linux-gnu"

@.str = private unnamed_addr constant [3 x i8] c"%d\00", align 1
@.str.1 = private unnamed_addr constant [12 x i8] c"%lf %lf %lf\00", align 1
@.str.2 = private unnamed_addr constant [19 x i8] c"x1=%.5lf;x2=%.5lf\0A\00", align 1
@.str.3 = private unnamed_addr constant [13 x i8] c"x1=x2=%.5lf\0A\00", align 1
@.str.4 = private unnamed_addr constant [33 x i8] c"x1=%.5lf+%.5lfi;x2=%.5lf-%.5lfi\0A\00", align 1

; Function Attrs: noinline nounwind uwtable
define dso_local i32 @main() #0 {
  %1 = alloca i32, align 4
  %2 = alloca i32, align 4
  %3 = alloca i32, align 4
  %4 = alloca double, align 8
  %5 = alloca double, align 8
  %6 = alloca double, align 8
  %7 = alloca double, align 8
  %8 = alloca double, align 8
  store i32 0, i32* %1, align 4
  %9 = call i32 (i8*, ...) @__isoc99_scanf(i8* getelementptr inbounds ([3 x i8], [3 x i8]* @.str, i64 0, i64 0), i32* %2)
  store i32 1, i32* %3, align 4
  br label %10

10:                                               ; preds = %136, %0
  %11 = load i32, i32* %3, align 4
  %12 = load i32, i32* %2, align 4
  %13 = icmp sle i32 %11, %12
  br i1 %13, label %14, label %139

14:                                               ; preds = %10
  %15 = call i32 (i8*, ...) @__isoc99_scanf(i8* getelementptr inbounds ([12 x i8], [12 x i8]* @.str.1, i64 0, i64 0), double* %4, double* %5, double* %6)
  %16 = load double, double* %5, align 8
  %17 = load double, double* %5, align 8
  %18 = fmul double %16, %17
  %19 = load double, double* %4, align 8
  %20 = fmul double 4.000000e+00, %19
  %21 = load double, double* %6, align 8
  %22 = fmul double %20, %21
  %23 = fsub double %18, %22
  %24 = fcmp ogt double %23, 0.000000e+00
  br i1 %24, label %25, label %59

25:                                               ; preds = %14
  %26 = load double, double* %5, align 8
  %27 = fneg double %26
  %28 = load double, double* %5, align 8
  %29 = load double, double* %5, align 8
  %30 = fmul double %28, %29
  %31 = load double, double* %4, align 8
  %32 = fmul double 4.000000e+00, %31
  %33 = load double, double* %6, align 8
  %34 = fmul double %32, %33
  %35 = fsub double %30, %34
  %36 = call double @sqrt(double %35) #3
  %37 = fadd double %27, %36
  %38 = load double, double* %4, align 8
  %39 = fmul double 2.000000e+00, %38
  %40 = fdiv double %37, %39
  store double %40, double* %7, align 8
  %41 = load double, double* %5, align 8
  %42 = fneg double %41
  %43 = load double, double* %5, align 8
  %44 = load double, double* %5, align 8
  %45 = fmul double %43, %44
  %46 = load double, double* %4, align 8
  %47 = fmul double 4.000000e+00, %46
  %48 = load double, double* %6, align 8
  %49 = fmul double %47, %48
  %50 = fsub double %45, %49
  %51 = call double @sqrt(double %50) #3
  %52 = fsub double %42, %51
  %53 = load double, double* %4, align 8
  %54 = fmul double 2.000000e+00, %53
  %55 = fdiv double %52, %54
  store double %55, double* %8, align 8
  %56 = load double, double* %7, align 8
  %57 = load double, double* %8, align 8
  %58 = call i32 (i8*, ...) @printf(i8* getelementptr inbounds ([19 x i8], [19 x i8]* @.str.2, i64 0, i64 0), double %56, double %57)
  br label %135

59:                                               ; preds = %14
  %60 = load double, double* %5, align 8
  %61 = load double, double* %5, align 8
  %62 = fmul double %60, %61
  %63 = load double, double* %4, align 8
  %64 = fmul double 4.000000e+00, %63
  %65 = load double, double* %6, align 8
  %66 = fmul double %64, %65
  %67 = fsub double %62, %66
  %68 = fcmp oeq double %67, 0.000000e+00
  br i1 %68, label %69, label %87

69:                                               ; preds = %59
  %70 = load double, double* %5, align 8
  %71 = fneg double %70
  %72 = load double, double* %5, align 8
  %73 = load double, double* %5, align 8
  %74 = fmul double %72, %73
  %75 = load double, double* %4, align 8
  %76 = fmul double 4.000000e+00, %75
  %77 = load double, double* %6, align 8
  %78 = fmul double %76, %77
  %79 = fsub double %74, %78
  %80 = call double @sqrt(double %79) #3
  %81 = fadd double %71, %80
  %82 = load double, double* %4, align 8
  %83 = fmul double 2.000000e+00, %82
  %84 = fdiv double %81, %83
  store double %84, double* %8, align 8
  store double %84, double* %7, align 8
  %85 = load double, double* %7, align 8
  %86 = call i32 (i8*, ...) @printf(i8* getelementptr inbounds ([13 x i8], [13 x i8]* @.str.3, i64 0, i64 0), double %85)
  br label %134

87:                                               ; preds = %59
  %88 = load double, double* %5, align 8
  %89 = load double, double* %5, align 8
  %90 = fmul double %88, %89
  %91 = load double, double* %4, align 8
  %92 = fmul double 4.000000e+00, %91
  %93 = load double, double* %6, align 8
  %94 = fmul double %92, %93
  %95 = fsub double %90, %94
  %96 = fcmp olt double %95, 0.000000e+00
  br i1 %96, label %97, label %133

97:                                               ; preds = %87
  %98 = load double, double* %5, align 8
  %99 = load double, double* %4, align 8
  %100 = fmul double 2.000000e+00, %99
  %101 = fdiv double %98, %100
  %102 = fsub double 0.000000e+00, %101
  %103 = load double, double* %4, align 8
  %104 = fmul double 4.000000e+00, %103
  %105 = load double, double* %6, align 8
  %106 = fmul double %104, %105
  %107 = load double, double* %5, align 8
  %108 = load double, double* %5, align 8
  %109 = fmul double %107, %108
  %110 = fsub double %106, %109
  %111 = call double @sqrt(double %110) #3
  %112 = load double, double* %4, align 8
  %113 = fmul double 2.000000e+00, %112
  %114 = fdiv double %111, %113
  %115 = load double, double* %5, align 8
  %116 = load double, double* %4, align 8
  %117 = fmul double 2.000000e+00, %116
  %118 = fdiv double %115, %117
  %119 = fsub double 0.000000e+00, %118
  %120 = load double, double* %4, align 8
  %121 = fmul double 4.000000e+00, %120
  %122 = load double, double* %6, align 8
  %123 = fmul double %121, %122
  %124 = load double, double* %5, align 8
  %125 = load double, double* %5, align 8
  %126 = fmul double %124, %125
  %127 = fsub double %123, %126
  %128 = call double @sqrt(double %127) #3
  %129 = load double, double* %4, align 8
  %130 = fmul double 2.000000e+00, %129
  %131 = fdiv double %128, %130
  %132 = call i32 (i8*, ...) @printf(i8* getelementptr inbounds ([33 x i8], [33 x i8]* @.str.4, i64 0, i64 0), double %102, double %114, double %119, double %131)
  br label %133

133:                                              ; preds = %97, %87
  br label %134

134:                                              ; preds = %133, %69
  br label %135

135:                                              ; preds = %134, %25
  br label %136

136:                                              ; preds = %135
  %137 = load i32, i32* %3, align 4
  %138 = add nsw i32 %137, 1
  store i32 %138, i32* %3, align 4
  br label %10

139:                                              ; preds = %10
  %140 = load i32, i32* %1, align 4
  ret i32 %140
}

declare dso_local i32 @__isoc99_scanf(i8*, ...) #1

; Function Attrs: nounwind
declare dso_local double @sqrt(double) #2

declare dso_local i32 @printf(i8*, ...) #1


!llvm.module.flags = !{!0}
!llvm.ident = !{!1}

!0 = !{i32 1, !"wchar_size", i32 4}
!1 = !{!"clang version 10.0.0-4ubuntu1 "}
